; ModuleID = 'source-C-CXX/56/238.c'
source_filename = "source-C-CXX/56/238.c"
target datalayout = "e-m:e-p270:32:32-p271:32:32-p272:64:64-i64:64-f80:128-n8:16:32:64-S128"
target triple = "x86_64-pc-linux-gnu"

@.str = private unnamed_addr constant [3 x i8] c"%d\00", align 1
@.str.1 = private unnamed_addr constant [3 x i8] c"%s\00", align 1

; Function Attrs: nofree nounwind sspstrong uwtable
define dso_local void @main() local_unnamed_addr #0 {
  %1 = alloca i32, align 4
  %2 = alloca [100 x [10 x i8]], align 16
  %3 = bitcast i32* %1 to i8*
  call void @llvm.lifetime.start.p0i8(i64 4, i8* nonnull %3) #6
  %4 = getelementptr inbounds [100 x [10 x i8]], [100 x [10 x i8]]* %2, i64 0, i64 0, i64 0
  call void @llvm.lifetime.start.p0i8(i64 1000, i8* nonnull %4) #6
  %5 = call i32 (i8*, ...) @__isoc99_scanf(i8* getelementptr inbounds ([3 x i8], [3 x i8]* @.str, i64 0, i64 0), i32* nonnull %1)
  %6 = load i32, i32* %1, align 4, !tbaa !5
  %7 = icmp sgt i32 %6, 0
  br i1 %7, label %10, label %90

8:                                                ; preds = %10
  %9 = icmp sgt i32 %15, 0
  br i1 %9, label %18, label %90

10:                                               ; preds = %0, %10
  %11 = phi i64 [ %14, %10 ], [ 0, %0 ]
  %12 = getelementptr inbounds [100 x [10 x i8]], [100 x [10 x i8]]* %2, i64 0, i64 %11, i64 0
  %13 = call i32 (i8*, ...) @__isoc99_scanf(i8* getelementptr inbounds ([3 x i8], [3 x i8]* @.str.1, i64 0, i64 0), i8* nonnull %12)
  %14 = add nuw nsw i64 %11, 1
  %15 = load i32, i32* %1, align 4, !tbaa !5
  %16 = sext i32 %15 to i64
  %17 = icmp slt i64 %14, %16
  br i1 %17, label %10, label %8, !llvm.loop !9

18:                                               ; preds = %8, %84
  %19 = phi i64 [ %86, %84 ], [ 0, %8 ]
  %20 = getelementptr inbounds [100 x [10 x i8]], [100 x [10 x i8]]* %2, i64 0, i64 %19, i64 0
  %21 = call i64 @strlen(i8* noundef nonnull %20) #7
  %22 = trunc i64 %21 to i32
  %23 = shl i64 %21, 32
  %24 = add i64 %23, -8589934592
  %25 = ashr exact i64 %24, 32
  %26 = getelementptr inbounds [100 x [10 x i8]], [100 x [10 x i8]]* %2, i64 0, i64 %19, i64 %25
  %27 = load i8, i8* %26, align 1, !tbaa !11
  switch i8 %27, label %56 [
    i8 101, label %28
    i8 108, label %37
  ]

28:                                               ; preds = %18
  %29 = shl i64 %21, 32
  %30 = add i64 %29, -4294967296
  %31 = ashr exact i64 %30, 32
  %32 = getelementptr inbounds [100 x [10 x i8]], [100 x [10 x i8]]* %2, i64 0, i64 %19, i64 %31
  %33 = load i8, i8* %32, align 1, !tbaa !11
  %34 = icmp eq i8 %33, 114
  %35 = icmp sgt i32 %22, 2
  %36 = select i1 %34, i1 %35, i1 false
  br i1 %36, label %46, label %56

37:                                               ; preds = %18
  %38 = shl i64 %21, 32
  %39 = add i64 %38, -4294967296
  %40 = ashr exact i64 %39, 32
  %41 = getelementptr inbounds [100 x [10 x i8]], [100 x [10 x i8]]* %2, i64 0, i64 %19, i64 %40
  %42 = load i8, i8* %41, align 1, !tbaa !11
  %43 = icmp eq i8 %42, 121
  %44 = icmp sgt i32 %22, 2
  %45 = select i1 %43, i1 %44, i1 false
  br i1 %45, label %46, label %56

46:                                               ; preds = %37, %28
  %47 = call i64 @llvm.smax.i64(i64 %25, i64 1)
  br label %48

48:                                               ; preds = %46, %48
  %49 = phi i64 [ 0, %46 ], [ %54, %48 ]
  %50 = getelementptr inbounds [100 x [10 x i8]], [100 x [10 x i8]]* %2, i64 0, i64 %19, i64 %49
  %51 = load i8, i8* %50, align 1, !tbaa !11
  %52 = sext i8 %51 to i32
  %53 = call i32 @putchar(i32 %52)
  %54 = add nuw nsw i64 %49, 1
  %55 = icmp eq i64 %54, %47
  br i1 %55, label %56, label %48, !llvm.loop !12

56:                                               ; preds = %48, %18, %28, %37
  %57 = add i32 %22, -3
  %58 = sext i32 %57 to i64
  %59 = getelementptr inbounds [100 x [10 x i8]], [100 x [10 x i8]]* %2, i64 0, i64 %19, i64 %58
  %60 = load i8, i8* %59, align 1, !tbaa !11
  %61 = icmp eq i8 %60, 105
  br i1 %61, label %62, label %84

62:                                               ; preds = %56
  %63 = load i8, i8* %26, align 1, !tbaa !11
  %64 = icmp eq i8 %63, 110
  br i1 %64, label %65, label %84

65:                                               ; preds = %62
  %66 = shl i64 %21, 32
  %67 = add i64 %66, -4294967296
  %68 = ashr exact i64 %67, 32
  %69 = getelementptr inbounds [100 x [10 x i8]], [100 x [10 x i8]]* %2, i64 0, i64 %19, i64 %68
  %70 = load i8, i8* %69, align 1, !tbaa !11
  %71 = icmp eq i8 %70, 103
  %72 = icmp sgt i32 %22, 3
  %73 = select i1 %71, i1 %72, i1 false
  br i1 %73, label %74, label %84

74:                                               ; preds = %65
  %75 = zext i32 %57 to i64
  br label %76

76:                                               ; preds = %74, %76
  %77 = phi i64 [ 0, %74 ], [ %82, %76 ]
  %78 = getelementptr inbounds [100 x [10 x i8]], [100 x [10 x i8]]* %2, i64 0, i64 %19, i64 %77
  %79 = load i8, i8* %78, align 1, !tbaa !11
  %80 = sext i8 %79 to i32
  %81 = call i32 @putchar(i32 %80)
  %82 = add nuw nsw i64 %77, 1
  %83 = icmp eq i64 %82, %75
  br i1 %83, label %84, label %76, !llvm.loop !13

84:                                               ; preds = %76, %65, %62, %56
  %85 = call i32 @putchar(i32 10)
  %86 = add nuw nsw i64 %19, 1
  %87 = load i32, i32* %1, align 4, !tbaa !5
  %88 = sext i32 %87 to i64
  %89 = icmp slt i64 %86, %88
  br i1 %89, label %18, label %90, !llvm.loop !14

90:                                               ; preds = %84, %0, %8
  call void @llvm.lifetime.end.p0i8(i64 1000, i8* nonnull %4) #6
  call void @llvm.lifetime.end.p0i8(i64 4, i8* nonnull %3) #6
  ret void
}

; Function Attrs: argmemonly mustprogress nofree nosync nounwind willreturn
declare void @llvm.lifetime.start.p0i8(i64 immarg, i8* nocapture) #1

; Function Attrs: nofree nounwind
declare noundef i32 @__isoc99_scanf(i8* nocapture noundef readonly, ...) local_unnamed_addr #2

; Function Attrs: argmemonly mustprogress nofree nounwind readonly willreturn
declare i64 @strlen(i8* nocapture) local_unnamed_addr #3

; Function Attrs: argmemonly mustprogress nofree nosync nounwind willreturn
declare void @llvm.lifetime.end.p0i8(i64 immarg, i8* nocapture) #1

; Function Attrs: nofree nounwind
declare noundef i32 @putchar(i32 noundef) local_unnamed_addr #4

; Function Attrs: nofree nosync nounwind readnone speculatable willreturn
declare i64 @llvm.smax.i64(i64, i64) #5


!llvm.module.flags = !{!0, !1, !2, !3}
!llvm.ident = !{!4}

!0 = !{i32 1, !"wchar_size", i32 4}
!1 = !{i32 7, !"PIC Level", i32 2}
!2 = !{i32 7, !"PIE Level", i32 2}
!3 = !{i32 7, !"uwtable", i32 1}
!4 = !{!"clang version 13.0.0"}
!5 = !{!6, !6, i64 0}
!6 = !{!"int", !7, i64 0}
!7 = !{!"omnipotent char", !8, i64 0}
!8 = !{!"Simple C/C++ TBAA"}
!9 = distinct !{!9, !10}
!10 = !{!"llvm.loop.mustprogress"}
!11 = !{!7, !7, i64 0}
!12 = distinct !{!12, !10}
!13 = distinct !{!13, !10}
!14 = distinct !{!14, !10}
